target datalayout = "e-m:e-p270:32:32-p271:32:32-p272:64:64-i64:64-i128:128-f80:128-n8:16:32:64-S128"
target triple = "x86_64-pc-linux-gnu"

; Function Attrs: nounwind uwtable
define internal void @_metadata_list_changed(ptr noundef %0, i32 noundef %1, ptr noundef %2) #0 {
  %4 = alloca ptr, align 8
  %5 = alloca i32, align 4
  %6 = alloca ptr, align 8
  store ptr %0, ptr %4, align 8, !tbaa !75
  store i32 %1, ptr %5, align 4, !tbaa !61
  store ptr %2, ptr %6, align 8, !tbaa !6
  %7 = load i32, ptr %5, align 4, !tbaa !61
  %8 = icmp eq i32 %7, 1
  br i1 %8, label %12, label %9

9:                                                ; preds = %3
  %10 = load i32, ptr %5, align 4, !tbaa !61
  %11 = icmp eq i32 %10, 0
  br i1 %11, label %12, label %14

12:                                               ; preds = %9, %3
  %13 = load ptr, ptr %6, align 8, !tbaa !6
  call void @_update_layout(ptr noundef %13)
  br label %14

14:                                               ; preds = %12, %9
  ret void
}