; Function Attrs: nounwind uwtable
define internal void @_metadata_list_changed(ptr readnone captures(none) %0, i32 noundef %1, ptr noundef readonly captures(none) %2) #0 {
  %or.cond = icmp ult i32 %1, 2
  br i1 %or.cond, label %4, label %5

4:                                                ; preds = %3
  tail call fastcc void @_update_layout(ptr noundef %2)
  br label %5

5:                                                ; preds = %3, %4
  ret void
}